target datalayout = "e-m:e-p270:32:32-p271:32:32-p272:64:64-i64:64-i128:128-f80:128-n8:16:32:64-S128"
target triple = "x86_64-pc-linux-gnu"

%struct.FFOutputFormat = type { %struct.AVOutputFormat, i32, i32, ptr, ptr, ptr, ptr, ptr, ptr, ptr, ptr, ptr, ptr, ptr, ptr }
%struct.AVOutputFormat = type { ptr, ptr, ptr, ptr, i32, i32, i32, i32, ptr, ptr }
%union.anon = type { i64 }
%struct.AVFormatContext = type { ptr, ptr, ptr, ptr, ptr, i32, i32, ptr, i32, ptr, i32, ptr, ptr, i64, i64, i64, i32, i32, i32, i64, i64, ptr, i32, i32, ptr, i32, i32, i32, i32, ptr, i64, i32, i32, %struct.AVIOInterruptCB, i32, i32, i32, i32, i64, i32, i32, i32, i32, i32, i32, i32, i32, i32, i32, i32, i32, i64, i32, i32, i32, i32, i32, ptr, ptr, ptr, ptr, i32, ptr, ptr, ptr, ptr, i32, ptr, ptr, i64, ptr, ptr, ptr, i64 }
%struct.AVIOInterruptCB = type { ptr, ptr }
%struct.MPJPEGContext = type { ptr, ptr }
%struct.AVPacket = type { ptr, i64, i64, ptr, i32, i32, i32, ptr, i32, i64, i64, ptr, ptr, %struct.AVRational }
%struct.AVRational = type { i32, i32 }

@.str = private unnamed_addr constant [7 x i8] c"mpjpeg\00", align 1
@.str.1 = private unnamed_addr constant [20 x i8] c"MIME multipart JPEG\00", align 1
@.str.2 = private unnamed_addr constant [42 x i8] c"multipart/x-mixed-replace;boundary=ffmpeg\00", align 1
@.str.3 = private unnamed_addr constant [5 x i8] c"mjpg\00", align 1
@ff_mpjpeg_muxer = constant %struct.FFOutputFormat { %struct.AVOutputFormat { ptr @.str, ptr @.str.1, ptr @.str.2, ptr @.str.3, i32 0, i32 7, i32 0, i32 128, ptr null, ptr @mpjpeg_muxer_class }, i32 16, i32 8, ptr @mpjpeg_write_header, ptr @mpjpeg_write_packet, ptr null, ptr null, ptr null, ptr null, ptr null, ptr null, ptr null, ptr null, ptr null, ptr null }, align 8
@.str.4 = private unnamed_addr constant [13 x i8] c"mpjpeg_muxer\00", align 1
@mpjpeg_muxer_class = internal constant { ptr, ptr, ptr, i32, i32, i32, i32, ptr, ptr, ptr, ptr, i32, [4 x i8] } { ptr @.str.4, ptr @av_default_item_name, ptr @options, i32 3932772, i32 0, i32 0, i32 0, ptr null, ptr null, ptr null, ptr null, i32 0, [4 x i8] zeroinitializer }, align 8
@.str.6 = private unnamed_addr constant [13 x i8] c"boundary_tag\00", align 1
@.str.7 = private unnamed_addr constant [13 x i8] c"Boundary tag\00", align 1
@.str.8 = private unnamed_addr constant [7 x i8] c"ffmpeg\00", align 1
@options = internal constant <{ { ptr, ptr, i32, i32, { ptr }, double, double, i32, [4 x i8], ptr }, { ptr, ptr, i32, i32, %union.anon, double, double, i32, [4 x i8], ptr } }> <{ { ptr, ptr, i32, i32, { ptr }, double, double, i32, [4 x i8], ptr } { ptr @.str.6, ptr @.str.7, i32 8, i32 6, { ptr } { ptr @.str.8 }, double 0.000000e+00, double 0.000000e+00, i32 1, [4 x i8] zeroinitializer, ptr null }, { ptr, ptr, i32, i32, %union.anon, double, double, i32, [4 x i8], ptr } zeroinitializer }>, align 16
@.str.10 = private unnamed_addr constant [7 x i8] c"--%s\0D\0A\00", align 1
@.str.11 = private unnamed_addr constant [27 x i8] c"Content-type: image/jpeg\0D\0A\00", align 1
@.str.12 = private unnamed_addr constant [23 x i8] c"Content-length: %d\0D\0A\0D\0A\00", align 1
@.str.13 = private unnamed_addr constant [9 x i8] c"\0D\0A--%s\0D\0A\00", align 1

; Function Attrs: nounwind uwtable
define internal i32 @mpjpeg_write_header(ptr noundef %0) #0 {
  %2 = alloca ptr, align 8
  %3 = alloca ptr, align 8
  store ptr %0, ptr %2, align 8, !tbaa !4
  call void @llvm.lifetime.start.p0(i64 8, ptr %3) #3
  %4 = load ptr, ptr %2, align 8, !tbaa !4
  %5 = getelementptr inbounds nuw %struct.AVFormatContext, ptr %4, i32 0, i32 3
  %6 = load ptr, ptr %5, align 8, !tbaa !9
  store ptr %6, ptr %3, align 8, !tbaa !26
  %7 = load ptr, ptr %2, align 8, !tbaa !4
  %8 = getelementptr inbounds nuw %struct.AVFormatContext, ptr %7, i32 0, i32 4
  %9 = load ptr, ptr %8, align 8, !tbaa !28
  %10 = load ptr, ptr %3, align 8, !tbaa !26
  %11 = getelementptr inbounds nuw %struct.MPJPEGContext, ptr %10, i32 0, i32 1
  %12 = load ptr, ptr %11, align 8, !tbaa !29
  %13 = call i32 (ptr, ptr, ...) @avio_printf(ptr noundef %9, ptr noundef @.str.10, ptr noundef %12)
  call void @llvm.lifetime.end.p0(i64 8, ptr %3) #3
  ret i32 0
}

; Function Attrs: nounwind uwtable
define internal i32 @mpjpeg_write_packet(ptr noundef %0, ptr noundef %1) #0 {
  %3 = alloca ptr, align 8
  %4 = alloca ptr, align 8
  %5 = alloca ptr, align 8
  store ptr %0, ptr %3, align 8, !tbaa !4
  store ptr %1, ptr %4, align 8, !tbaa !31
  call void @llvm.lifetime.start.p0(i64 8, ptr %5) #3
  %6 = load ptr, ptr %3, align 8, !tbaa !4
  %7 = getelementptr inbounds nuw %struct.AVFormatContext, ptr %6, i32 0, i32 3
  %8 = load ptr, ptr %7, align 8, !tbaa !9
  store ptr %8, ptr %5, align 8, !tbaa !26
  %9 = load ptr, ptr %3, align 8, !tbaa !4
  %10 = getelementptr inbounds nuw %struct.AVFormatContext, ptr %9, i32 0, i32 4
  %11 = load ptr, ptr %10, align 8, !tbaa !28
  %12 = call i32 (ptr, ptr, ...) @avio_printf(ptr noundef %11, ptr noundef @.str.11)
  %13 = load ptr, ptr %3, align 8, !tbaa !4
  %14 = getelementptr inbounds nuw %struct.AVFormatContext, ptr %13, i32 0, i32 4
  %15 = load ptr, ptr %14, align 8, !tbaa !28
  %16 = load ptr, ptr %4, align 8, !tbaa !31
  %17 = getelementptr inbounds nuw %struct.AVPacket, ptr %16, i32 0, i32 4
  %18 = load i32, ptr %17, align 8, !tbaa !33
  %19 = call i32 (ptr, ptr, ...) @avio_printf(ptr noundef %15, ptr noundef @.str.12, i32 noundef %18)
  %20 = load ptr, ptr %3, align 8, !tbaa !4
  %21 = getelementptr inbounds nuw %struct.AVFormatContext, ptr %20, i32 0, i32 4
  %22 = load ptr, ptr %21, align 8, !tbaa !28
  %23 = load ptr, ptr %4, align 8, !tbaa !31
  %24 = getelementptr inbounds nuw %struct.AVPacket, ptr %23, i32 0, i32 3
  %25 = load ptr, ptr %24, align 8, !tbaa !38
  %26 = load ptr, ptr %4, align 8, !tbaa !31
  %27 = getelementptr inbounds nuw %struct.AVPacket, ptr %26, i32 0, i32 4
  %28 = load i32, ptr %27, align 8, !tbaa !33
  call void @avio_write(ptr noundef %22, ptr noundef %25, i32 noundef %28)
  %29 = load ptr, ptr %3, align 8, !tbaa !4
  %30 = getelementptr inbounds nuw %struct.AVFormatContext, ptr %29, i32 0, i32 4
  %31 = load ptr, ptr %30, align 8, !tbaa !28
  %32 = load ptr, ptr %5, align 8, !tbaa !26
  %33 = getelementptr inbounds nuw %struct.MPJPEGContext, ptr %32, i32 0, i32 1
  %34 = load ptr, ptr %33, align 8, !tbaa !29
  %35 = call i32 (ptr, ptr, ...) @avio_printf(ptr noundef %31, ptr noundef @.str.13, ptr noundef %34)
  call void @llvm.lifetime.end.p0(i64 8, ptr %5) #3
  ret i32 0
}

declare ptr @av_default_item_name(ptr noundef) #1

; Function Attrs: nocallback nofree nosync nounwind willreturn memory(argmem: readwrite)
declare void @llvm.lifetime.start.p0(i64 immarg, ptr captures(none)) #2

declare i32 @avio_printf(ptr noundef, ptr noundef, ...) #1

; Function Attrs: nocallback nofree nosync nounwind willreturn memory(argmem: readwrite)
declare void @llvm.lifetime.end.p0(i64 immarg, ptr captures(none)) #2

declare void @avio_write(ptr noundef, ptr noundef, i32 noundef) #1


!llvm.module.flags = !{!0, !1, !2, !3}

!0 = !{i32 1, !"wchar_size", i32 4}
!1 = !{i32 8, !"PIC Level", i32 2}
!2 = !{i32 7, !"uwtable", i32 2}
!3 = !{i32 1, !"override-stack-alignment", i32 16}
!4 = !{!5, !5, i64 0}
!5 = !{!"p1 _ZTS15AVFormatContext", !6, i64 0}
!6 = !{!"any pointer", !7, i64 0}
!7 = !{!"omnipotent char", !8, i64 0}
!8 = !{!"Simple C/C++ TBAA"}
!9 = !{!10, !6, i64 24}
!10 = !{!"AVFormatContext", !11, i64 0, !12, i64 8, !13, i64 16, !6, i64 24, !14, i64 32, !15, i64 40, !15, i64 44, !16, i64 48, !15, i64 56, !18, i64 64, !15, i64 72, !19, i64 80, !20, i64 88, !21, i64 96, !21, i64 104, !21, i64 112, !15, i64 120, !15, i64 124, !15, i64 128, !21, i64 136, !21, i64 144, !20, i64 152, !15, i64 160, !15, i64 164, !22, i64 168, !15, i64 176, !15, i64 180, !15, i64 184, !15, i64 188, !23, i64 192, !21, i64 200, !15, i64 208, !15, i64 212, !24, i64 216, !15, i64 232, !15, i64 236, !15, i64 240, !15, i64 244, !21, i64 248, !15, i64 256, !15, i64 260, !15, i64 264, !15, i64 268, !15, i64 272, !15, i64 276, !15, i64 280, !15, i64 284, !15, i64 288, !15, i64 292, !15, i64 296, !15, i64 300, !21, i64 304, !15, i64 312, !15, i64 316, !15, i64 320, !15, i64 324, !15, i64 328, !20, i64 336, !20, i64 344, !20, i64 352, !20, i64 360, !15, i64 368, !25, i64 376, !25, i64 384, !25, i64 392, !25, i64 400, !15, i64 408, !6, i64 416, !6, i64 424, !21, i64 432, !20, i64 440, !6, i64 448, !6, i64 456, !21, i64 464}
!11 = !{!"p1 _ZTS7AVClass", !6, i64 0}
!12 = !{!"p1 _ZTS13AVInputFormat", !6, i64 0}
!13 = !{!"p1 _ZTS14AVOutputFormat", !6, i64 0}
!14 = !{!"p1 _ZTS11AVIOContext", !6, i64 0}
!15 = !{!"int", !7, i64 0}
!16 = !{!"p2 _ZTS8AVStream", !17, i64 0}
!17 = !{!"any p2 pointer", !6, i64 0}
!18 = !{!"p2 _ZTS13AVStreamGroup", !17, i64 0}
!19 = !{!"p2 _ZTS9AVChapter", !17, i64 0}
!20 = !{!"p1 omnipotent char", !6, i64 0}
!21 = !{!"long", !7, i64 0}
!22 = !{!"p2 _ZTS9AVProgram", !17, i64 0}
!23 = !{!"p1 _ZTS12AVDictionary", !6, i64 0}
!24 = !{!"AVIOInterruptCB", !6, i64 0, !6, i64 8}
!25 = !{!"p1 _ZTS7AVCodec", !6, i64 0}
!26 = !{!27, !27, i64 0}
!27 = !{!"p1 _ZTS13MPJPEGContext", !6, i64 0}
!28 = !{!10, !14, i64 32}
!29 = !{!30, !20, i64 8}
!30 = !{!"MPJPEGContext", !11, i64 0, !20, i64 8}
!31 = !{!32, !32, i64 0}
!32 = !{!"p1 _ZTS8AVPacket", !6, i64 0}
!33 = !{!34, !15, i64 32}
!34 = !{!"AVPacket", !35, i64 0, !21, i64 8, !21, i64 16, !20, i64 24, !15, i64 32, !15, i64 36, !15, i64 40, !36, i64 48, !15, i64 56, !21, i64 64, !21, i64 72, !6, i64 80, !35, i64 88, !37, i64 96}
!35 = !{!"p1 _ZTS11AVBufferRef", !6, i64 0}
!36 = !{!"p1 _ZTS16AVPacketSideData", !6, i64 0}
!37 = !{!"AVRational", !15, i64 0, !15, i64 4}
!38 = !{!34, !20, i64 24}
