; ModuleID = 'bench/ffmpeg/original/mpjpeg.ll'
source_filename = "bench/ffmpeg/original/mpjpeg.ll"
target datalayout = "e-m:e-p270:32:32-p271:32:32-p272:64:64-i64:64-i128:128-f80:128-n8:16:32:64-S128"
target triple = "x86_64-pc-linux-gnu"

%struct.FFOutputFormat = type { %struct.AVOutputFormat, i32, i32, ptr, ptr, ptr, ptr, ptr, ptr, ptr, ptr, ptr, ptr, ptr, ptr }
%struct.AVOutputFormat = type { ptr, ptr, ptr, ptr, i32, i32, i32, i32, ptr, ptr }
%union.anon = type { i64 }

@.str = private unnamed_addr constant [7 x i8] c"mpjpeg\00", align 1
@.str.1 = private unnamed_addr constant [20 x i8] c"MIME multipart JPEG\00", align 1
@.str.2 = private unnamed_addr constant [42 x i8] c"multipart/x-mixed-replace;boundary=ffmpeg\00", align 1
@.str.3 = private unnamed_addr constant [5 x i8] c"mjpg\00", align 1
@ff_mpjpeg_muxer = local_unnamed_addr constant %struct.FFOutputFormat { %struct.AVOutputFormat { ptr @.str, ptr @.str.1, ptr @.str.2, ptr @.str.3, i32 0, i32 7, i32 0, i32 128, ptr null, ptr @mpjpeg_muxer_class }, i32 16, i32 8, ptr @mpjpeg_write_header, ptr @mpjpeg_write_packet, ptr null, ptr null, ptr null, ptr null, ptr null, ptr null, ptr null, ptr null, ptr null, ptr null }, align 8
@.str.4 = private unnamed_addr constant [13 x i8] c"mpjpeg_muxer\00", align 1
@mpjpeg_muxer_class = internal constant { ptr, ptr, ptr, i32, i32, i32, i32, ptr, ptr, ptr, ptr, i32, [4 x i8] } { ptr @.str.4, ptr @av_default_item_name, ptr @options, i32 3932772, i32 0, i32 0, i32 0, ptr null, ptr null, ptr null, ptr null, i32 0, [4 x i8] zeroinitializer }, align 8
@.str.6 = private unnamed_addr constant [13 x i8] c"boundary_tag\00", align 1
@.str.7 = private unnamed_addr constant [13 x i8] c"Boundary tag\00", align 1
@.str.8 = private unnamed_addr constant [7 x i8] c"ffmpeg\00", align 1
@options = internal constant <{ { ptr, ptr, i32, i32, { ptr }, double, double, i32, [4 x i8], ptr }, { ptr, ptr, i32, i32, %union.anon, double, double, i32, [4 x i8], ptr } }> <{ { ptr, ptr, i32, i32, { ptr }, double, double, i32, [4 x i8], ptr } { ptr @.str.6, ptr @.str.7, i32 8, i32 6, { ptr } { ptr @.str.8 }, double 0.000000e+00, double 0.000000e+00, i32 1, [4 x i8] zeroinitializer, ptr null }, { ptr, ptr, i32, i32, %union.anon, double, double, i32, [4 x i8], ptr } zeroinitializer }>, align 16
@.str.10 = private unnamed_addr constant [7 x i8] c"--%s\0D\0A\00", align 1
@.str.11 = private unnamed_addr constant [27 x i8] c"Content-type: image/jpeg\0D\0A\00", align 1
@.str.12 = private unnamed_addr constant [23 x i8] c"Content-length: %d\0D\0A\0D\0A\00", align 1
@.str.13 = private unnamed_addr constant [9 x i8] c"\0D\0A--%s\0D\0A\00", align 1

; Function Attrs: nounwind uwtable
define internal noundef i32 @mpjpeg_write_header(ptr noundef readonly captures(none) %0) #0 {
  %2 = getelementptr inbounds nuw i8, ptr %0, i64 24
  %3 = load ptr, ptr %2, align 8, !tbaa !4
  %4 = getelementptr inbounds nuw i8, ptr %0, i64 32
  %5 = load ptr, ptr %4, align 8, !tbaa !24
  %6 = getelementptr inbounds nuw i8, ptr %3, i64 8
  %7 = load ptr, ptr %6, align 8, !tbaa !25
  %8 = tail call i32 (ptr, ptr, ...) @avio_printf(ptr noundef %5, ptr noundef nonnull @.str.10, ptr noundef %7) #2
  ret i32 0
}

; Function Attrs: nounwind uwtable
define internal noundef i32 @mpjpeg_write_packet(ptr noundef readonly captures(none) %0, ptr noundef readonly captures(none) %1) #0 {
  %3 = getelementptr inbounds nuw i8, ptr %0, i64 24
  %4 = load ptr, ptr %3, align 8, !tbaa !4
  %5 = getelementptr inbounds nuw i8, ptr %0, i64 32
  %6 = load ptr, ptr %5, align 8, !tbaa !24
  %7 = tail call i32 (ptr, ptr, ...) @avio_printf(ptr noundef %6, ptr noundef nonnull @.str.11) #2
  %8 = load ptr, ptr %5, align 8, !tbaa !24
  %9 = getelementptr inbounds nuw i8, ptr %1, i64 32
  %10 = load i32, ptr %9, align 8, !tbaa !27
  %11 = tail call i32 (ptr, ptr, ...) @avio_printf(ptr noundef %8, ptr noundef nonnull @.str.12, i32 noundef %10) #2
  %12 = load ptr, ptr %5, align 8, !tbaa !24
  %13 = getelementptr inbounds nuw i8, ptr %1, i64 24
  %14 = load ptr, ptr %13, align 8, !tbaa !32
  %15 = load i32, ptr %9, align 8, !tbaa !27
  tail call void @avio_write(ptr noundef %12, ptr noundef %14, i32 noundef %15) #2
  %16 = load ptr, ptr %5, align 8, !tbaa !24
  %17 = getelementptr inbounds nuw i8, ptr %4, i64 8
  %18 = load ptr, ptr %17, align 8, !tbaa !25
  %19 = tail call i32 (ptr, ptr, ...) @avio_printf(ptr noundef %16, ptr noundef nonnull @.str.13, ptr noundef %18) #2
  ret i32 0
}

declare ptr @av_default_item_name(ptr noundef) #1

declare i32 @avio_printf(ptr noundef, ptr noundef, ...) local_unnamed_addr #1

declare void @avio_write(ptr noundef, ptr noundef, i32 noundef) local_unnamed_addr #1


!llvm.module.flags = !{!0, !1, !2, !3}

!0 = !{i32 1, !"wchar_size", i32 4}
!1 = !{i32 8, !"PIC Level", i32 2}
!2 = !{i32 7, !"uwtable", i32 2}
!3 = !{i32 1, !"override-stack-alignment", i32 16}
!4 = !{!5, !7, i64 24}
!5 = !{!"AVFormatContext", !6, i64 0, !10, i64 8, !11, i64 16, !7, i64 24, !12, i64 32, !13, i64 40, !13, i64 44, !14, i64 48, !13, i64 56, !16, i64 64, !13, i64 72, !17, i64 80, !18, i64 88, !19, i64 96, !19, i64 104, !19, i64 112, !13, i64 120, !13, i64 124, !13, i64 128, !19, i64 136, !19, i64 144, !18, i64 152, !13, i64 160, !13, i64 164, !20, i64 168, !13, i64 176, !13, i64 180, !13, i64 184, !13, i64 188, !21, i64 192, !19, i64 200, !13, i64 208, !13, i64 212, !22, i64 216, !13, i64 232, !13, i64 236, !13, i64 240, !13, i64 244, !19, i64 248, !13, i64 256, !13, i64 260, !13, i64 264, !13, i64 268, !13, i64 272, !13, i64 276, !13, i64 280, !13, i64 284, !13, i64 288, !13, i64 292, !13, i64 296, !13, i64 300, !19, i64 304, !13, i64 312, !13, i64 316, !13, i64 320, !13, i64 324, !13, i64 328, !18, i64 336, !18, i64 344, !18, i64 352, !18, i64 360, !13, i64 368, !23, i64 376, !23, i64 384, !23, i64 392, !23, i64 400, !13, i64 408, !7, i64 416, !7, i64 424, !19, i64 432, !18, i64 440, !7, i64 448, !7, i64 456, !19, i64 464}
!6 = !{!"p1 _ZTS7AVClass", !7, i64 0}
!7 = !{!"any pointer", !8, i64 0}
!8 = !{!"omnipotent char", !9, i64 0}
!9 = !{!"Simple C/C++ TBAA"}
!10 = !{!"p1 _ZTS13AVInputFormat", !7, i64 0}
!11 = !{!"p1 _ZTS14AVOutputFormat", !7, i64 0}
!12 = !{!"p1 _ZTS11AVIOContext", !7, i64 0}
!13 = !{!"int", !8, i64 0}
!14 = !{!"p2 _ZTS8AVStream", !15, i64 0}
!15 = !{!"any p2 pointer", !7, i64 0}
!16 = !{!"p2 _ZTS13AVStreamGroup", !15, i64 0}
!17 = !{!"p2 _ZTS9AVChapter", !15, i64 0}
!18 = !{!"p1 omnipotent char", !7, i64 0}
!19 = !{!"long", !8, i64 0}
!20 = !{!"p2 _ZTS9AVProgram", !15, i64 0}
!21 = !{!"p1 _ZTS12AVDictionary", !7, i64 0}
!22 = !{!"AVIOInterruptCB", !7, i64 0, !7, i64 8}
!23 = !{!"p1 _ZTS7AVCodec", !7, i64 0}
!24 = !{!5, !12, i64 32}
!25 = !{!26, !18, i64 8}
!26 = !{!"MPJPEGContext", !6, i64 0, !18, i64 8}
!27 = !{!28, !13, i64 32}
!28 = !{!"AVPacket", !29, i64 0, !19, i64 8, !19, i64 16, !18, i64 24, !13, i64 32, !13, i64 36, !13, i64 40, !30, i64 48, !13, i64 56, !19, i64 64, !19, i64 72, !7, i64 80, !29, i64 88, !31, i64 96}
!29 = !{!"p1 _ZTS11AVBufferRef", !7, i64 0}
!30 = !{!"p1 _ZTS16AVPacketSideData", !7, i64 0}
!31 = !{!"AVRational", !13, i64 0, !13, i64 4}
!32 = !{!28, !18, i64 24}
